target datalayout = "e-m:e-p270:32:32-p271:32:32-p272:64:64-i64:64-i128:128-f80:128-n8:16:32:64-S128"
target triple = "x86_64-pc-linux-gnu"

@hf_hnd = internal global i32 0, align 4
@hf_routerreplyprinter_condition = internal global i32 0, align 4
@hf_routerreplyprinter_unknown1 = internal global i32 0, align 4
@hf_routerreplyprinter_changeid = internal global i32 0, align 4

; Function Attrs: nounwind uwtable
define internal i32 @SpoolssRouterReplyPrinter_q(ptr noundef %0, i32 noundef %1, ptr noundef %2, ptr noundef %3, ptr noundef %4, ptr noundef %5) #0 {
  %7 = alloca ptr, align 8
  %8 = alloca i32, align 4
  %9 = alloca ptr, align 8
  %10 = alloca ptr, align 8
  %11 = alloca ptr, align 8
  %12 = alloca ptr, align 8
  store ptr %0, ptr %7, align 8
  store i32 %1, ptr %8, align 4
  store ptr %2, ptr %9, align 8
  store ptr %3, ptr %10, align 8
  store ptr %4, ptr %11, align 8
  store ptr %5, ptr %12, align 8
  %13 = load ptr, ptr %7, align 8
  %14 = load i32, ptr %8, align 4
  %15 = load ptr, ptr %9, align 8
  %16 = load ptr, ptr %10, align 8
  %17 = load ptr, ptr %11, align 8
  %18 = load ptr, ptr %12, align 8
  %19 = load i32, ptr @hf_hnd, align 4
  %20 = call i32 @dissect_nt_policy_hnd(ptr noundef %13, i32 noundef %14, ptr noundef %15, ptr noundef %16, ptr noundef %17, ptr noundef %18, i32 noundef %19, ptr noundef null, ptr noundef null, i32 noundef 0, i32 noundef 0)
  store i32 %20, ptr %8, align 4
  %21 = load ptr, ptr %7, align 8
  %22 = load i32, ptr %8, align 4
  %23 = load ptr, ptr %9, align 8
  %24 = load ptr, ptr %10, align 8
  %25 = load ptr, ptr %11, align 8
  %26 = load ptr, ptr %12, align 8
  %27 = load i32, ptr @hf_routerreplyprinter_condition, align 4
  %28 = call i32 @dissect_ndr_uint32(ptr noundef %21, i32 noundef %22, ptr noundef %23, ptr noundef %24, ptr noundef %25, ptr noundef %26, i32 noundef %27, ptr noundef null)
  store i32 %28, ptr %8, align 4
  %29 = load ptr, ptr %7, align 8
  %30 = load i32, ptr %8, align 4
  %31 = load ptr, ptr %9, align 8
  %32 = load ptr, ptr %10, align 8
  %33 = load ptr, ptr %11, align 8
  %34 = load ptr, ptr %12, align 8
  %35 = load i32, ptr @hf_routerreplyprinter_unknown1, align 4
  %36 = call i32 @dissect_ndr_uint32(ptr noundef %29, i32 noundef %30, ptr noundef %31, ptr noundef %32, ptr noundef %33, ptr noundef %34, i32 noundef %35, ptr noundef null)
  store i32 %36, ptr %8, align 4
  %37 = load ptr, ptr %7, align 8
  %38 = load i32, ptr %8, align 4
  %39 = load ptr, ptr %9, align 8
  %40 = load ptr, ptr %10, align 8
  %41 = load ptr, ptr %11, align 8
  %42 = load ptr, ptr %12, align 8
  %43 = load i32, ptr @hf_routerreplyprinter_changeid, align 4
  %44 = call i32 @dissect_ndr_uint32(ptr noundef %37, i32 noundef %38, ptr noundef %39, ptr noundef %40, ptr noundef %41, ptr noundef %42, i32 noundef %43, ptr noundef null)
  store i32 %44, ptr %8, align 4
  %45 = load i32, ptr %8, align 4
  ret i32 %45
}