; Function Attrs: nounwind uwtable
define internal i32 @SpoolssRouterReplyPrinter_q(ptr noundef %0, i32 noundef %1, ptr noundef %2, ptr noundef %3, ptr noundef %4, ptr noundef %5) #0 {
  %7 = load i32, ptr @hf_hnd, align 4
  %8 = tail call i32 @dissect_nt_policy_hnd(ptr noundef %0, i32 noundef %1, ptr noundef %2, ptr noundef %3, ptr noundef %4, ptr noundef %5, i32 noundef %7, ptr noundef null, ptr noundef null, i32 noundef 0, i32 noundef 0) #5
  %9 = load i32, ptr @hf_routerreplyprinter_condition, align 4
  %10 = tail call i32 @dissect_ndr_uint32(ptr noundef %0, i32 noundef %8, ptr noundef %2, ptr noundef %3, ptr noundef %4, ptr noundef %5, i32 noundef %9, ptr noundef null) #5
  %11 = load i32, ptr @hf_routerreplyprinter_unknown1, align 4
  %12 = tail call i32 @dissect_ndr_uint32(ptr noundef %0, i32 noundef %10, ptr noundef %2, ptr noundef %3, ptr noundef %4, ptr noundef %5, i32 noundef %11, ptr noundef null) #5
  %13 = load i32, ptr @hf_routerreplyprinter_changeid, align 4
  %14 = tail call i32 @dissect_ndr_uint32(ptr noundef %0, i32 noundef %12, ptr noundef %2, ptr noundef %3, ptr noundef %4, ptr noundef %5, i32 noundef %13, ptr noundef null) #5
  ret i32 %14
}